target datalayout = "e-m:e-p270:32:32-p271:32:32-p272:64:64-i64:64-i128:128-f80:128-n8:16:32:64-S128"
target triple = "x86_64-pc-linux-gnu"

%class.GraphAlg = type { ptr, ptr }
%class.GraphAlgSubtrees = type { %class.GraphAlg, ptr }

; Function Attrs: mustprogress nounwind uwtable
define linkonce_odr dso_local void @_ZN8GraphAlgI7V3GraphEC2EPS0_PFbPK11V3GraphEdgeE(ptr noundef nonnull align 8 dereferenceable(16) %0, ptr noundef %1, ptr noundef %2) unnamed_addr #5 comdat align 2 {
  %4 = alloca ptr, align 8
  %5 = alloca ptr, align 8
  %6 = alloca ptr, align 8
  store ptr %0, ptr %4, align 8
  store ptr %1, ptr %5, align 8
  store ptr %2, ptr %6, align 8
  %7 = load ptr, ptr %4, align 8
  %8 = getelementptr inbounds %class.GraphAlg, ptr %7, i32 0, i32 0
  %9 = load ptr, ptr %5, align 8
  store ptr %9, ptr %8, align 8
  %10 = getelementptr inbounds %class.GraphAlg, ptr %7, i32 0, i32 1
  %11 = load ptr, ptr %6, align 8
  store ptr %11, ptr %10, align 8
  ret void
}

; Function Attrs: mustprogress uwtable
define linkonce_odr dso_local void @_ZN16GraphAlgSubtreesC2EP7V3GraphS1_PFbPK11V3GraphEdgeEP13V3GraphVertex(ptr noundef nonnull align 8 dereferenceable(24) %0, ptr noundef %1, ptr noundef %2, ptr noundef %3, ptr noundef %4) unnamed_addr #4 comdat align 2 {
  %6 = alloca ptr, align 8
  %7 = alloca ptr, align 8
  %8 = alloca ptr, align 8
  %9 = alloca ptr, align 8
  %10 = alloca ptr, align 8
  store ptr %0, ptr %6, align 8
  store ptr %1, ptr %7, align 8
  store ptr %2, ptr %8, align 8
  store ptr %3, ptr %9, align 8
  store ptr %4, ptr %10, align 8
  %11 = load ptr, ptr %6, align 8
  %12 = load ptr, ptr %7, align 8
  %13 = load ptr, ptr %9, align 8
  call void @_ZN8GraphAlgI7V3GraphEC2EPS0_PFbPK11V3GraphEdgeE(ptr noundef nonnull align 8 dereferenceable(16) %11, ptr noundef %12, ptr noundef %13)
  %14 = getelementptr inbounds %class.GraphAlgSubtrees, ptr %11, i32 0, i32 1
  %15 = load ptr, ptr %8, align 8
  store ptr %15, ptr %14, align 8
  %16 = getelementptr inbounds %class.GraphAlg, ptr %11, i32 0, i32 0
  %17 = load ptr, ptr %16, align 8
  call void @_ZN7V3Graph17userClearVerticesEv(ptr noundef nonnull align 8 dereferenceable(24) %17)
  %18 = getelementptr inbounds %class.GraphAlg, ptr %11, i32 0, i32 0
  %19 = load ptr, ptr %18, align 8
  call void @_ZN7V3Graph14userClearEdgesEv(ptr noundef nonnull align 8 dereferenceable(24) %19)
  %20 = load ptr, ptr %10, align 8
  %21 = call noundef ptr @_ZN16GraphAlgSubtrees16vertexIterateAllEP13V3GraphVertex(ptr noundef nonnull align 8 dereferenceable(24) %11, ptr noundef %20)
  ret void
}

; Function Attrs: mustprogress uwtable
define dso_local void @_ZN7V3Graph12subtreeLoopsEPFbPK11V3GraphEdgeEP13V3GraphVertexPS_(ptr noundef nonnull align 8 dereferenceable(24) %0, ptr noundef %1, ptr noundef %2, ptr noundef %3) #4 align 2 {
  %5 = alloca ptr, align 8
  %6 = alloca ptr, align 8
  %7 = alloca ptr, align 8
  %8 = alloca ptr, align 8
  %9 = alloca %class.GraphAlgSubtrees, align 8
  store ptr %0, ptr %5, align 8
  store ptr %1, ptr %6, align 8
  store ptr %2, ptr %7, align 8
  store ptr %3, ptr %8, align 8
  %10 = load ptr, ptr %5, align 8
  %11 = load ptr, ptr %8, align 8
  %12 = load ptr, ptr %6, align 8
  %13 = load ptr, ptr %7, align 8
  call void @_ZN16GraphAlgSubtreesC2EP7V3GraphS1_PFbPK11V3GraphEdgeEP13V3GraphVertex(ptr noundef nonnull align 8 dereferenceable(24) %9, ptr noundef %10, ptr noundef %11, ptr noundef %12, ptr noundef %13)
  ret void
}