; Function Attrs: mustprogress uwtable
define dso_local void @_ZN7V3Graph12subtreeLoopsEPFbPK11V3GraphEdgeEP13V3GraphVertexPS_(ptr noundef nonnull align 8 dereferenceable(24) %0, ptr noundef %1, ptr noundef %2, ptr noundef %3) #3 align 2 {
  %5 = alloca %class.GraphAlgSubtrees, align 8
  store ptr %0, ptr %5, align 8
  %6 = getelementptr inbounds i8, ptr %5, i64 8
  store ptr %1, ptr %6, align 8
  %7 = getelementptr inbounds i8, ptr %5, i64 16
  store ptr %3, ptr %7, align 8
  tail call void @_ZN7V3Graph17userClearVerticesEv(ptr noundef nonnull align 8 dereferenceable(24) %0)
  tail call void @_ZN7V3Graph14userClearEdgesEv(ptr noundef nonnull align 8 dereferenceable(24) %0)
  %8 = call noundef ptr @_ZN16GraphAlgSubtrees16vertexIterateAllEP13V3GraphVertex(ptr noundef nonnull align 8 dereferenceable(24) %5, ptr noundef %2)
  ret void
}